target datalayout = "e-m:e-p270:32:32-p271:32:32-p272:64:64-i64:64-i128:128-f80:128-n8:16:32:64-S128"
target triple = "x86_64-pc-linux-gnu"

@XLogReceiptTime = internal global i64 0, align 8
@XLogReceiptSource = internal global i32 0, align 4

; Function Attrs: nounwind uwtable
define dso_local void @GetXLogReceiptTime(ptr noundef %0, ptr noundef %1) #0 {
  %3 = alloca ptr, align 8
  %4 = alloca ptr, align 8
  store ptr %0, ptr %3, align 8
  store ptr %1, ptr %4, align 8
  %5 = load i64, ptr @XLogReceiptTime, align 8
  %6 = load ptr, ptr %3, align 8
  store i64 %5, ptr %6, align 8
  %7 = load i32, ptr @XLogReceiptSource, align 4
  %8 = icmp eq i32 %7, 3
  %9 = load ptr, ptr %4, align 8
  %10 = zext i1 %8 to i8
  store i8 %10, ptr %9, align 1
  ret void
}