; Function Attrs: mustprogress nofree norecurse nosync nounwind willreturn memory(read, argmem: write, inaccessiblemem: none) uwtable
define dso_local void @GetXLogReceiptTime(ptr noundef writeonly captures(none) initializes((0, 8)) %0, ptr noundef writeonly captures(none) initializes((0, 1)) %1) local_unnamed_addr #12 {
  %3 = load i64, ptr @XLogReceiptTime, align 8
  store i64 %3, ptr %0, align 8
  %4 = load i32, ptr @XLogReceiptSource, align 4
  %5 = icmp eq i32 %4, 3
  %6 = zext i1 %5 to i8
  store i8 %6, ptr %1, align 1
  ret void
}